; Function Attrs: mustprogress uwtable
define internal noundef double @"_ZNSt17_Function_handlerIFddEZNK8QuantLib23ExponentialJump1dMesher20jumpSizeDistributionEddE3$_0E9_M_invokeERKSt9_Any_dataOd"(ptr nocapture noundef nonnull readonly align 8 dereferenceable(16) %__functor, ptr nocapture noundef nonnull readonly align 8 dereferenceable(8) %__args) #0 align 2 {
entry:
  %ref.tmp.i.i.i.i = alloca %"class.QuantLib::GammaFunction", align 1
  %call.val = load ptr, ptr %__functor, align 8, !tbaa !42
  %0 = getelementptr inbounds i8, ptr %__functor, i64 8
  %call.val1 = load ptr, ptr %0, align 8, !tbaa !44
  %__args.val = load double, ptr %__args, align 8, !tbaa !28
  %call.val1.val = load double, ptr %call.val1, align 8, !tbaa !28
  %jumpIntensity_.i.i.i.i = getelementptr inbounds nuw i8, ptr %call.val, i64 88
  %1 = load double, ptr %jumpIntensity_.i.i.i.i, align 8, !tbaa !16
  %beta_.i.i.i.i = getelementptr inbounds nuw i8, ptr %call.val, i64 80
  %2 = load double, ptr %beta_.i.i.i.i, align 8, !tbaa !6
  %div.i.i.i.i = fdiv double %1, %2
  %sub.i.i.i.i = fsub double 1.000000e+00, %div.i.i.i.i
  %fneg.i.i.i.i = fneg double %1
  %mul.i.i.i.i = fmul double %call.val1.val, %fneg.i.i.i.i
  %call.i.i.i.i = tail call double @exp(double noundef %mul.i.i.i.i) #19, !tbaa !24
  %sub3.i.i.i.i = fsub double 1.000000e+00, %call.i.i.i.i
  call void @llvm.lifetime.start.p0(i64 1, ptr nonnull %ref.tmp.i.i.i.i) #19
  %call8.i.i.i.i = call noundef double @_ZNK8QuantLib13GammaFunction8logValueEd(ptr noundef nonnull align 1 dereferenceable(1) %ref.tmp.i.i.i.i, double noundef %sub.i.i.i.i)
  %call9.i.i.i.i = call double @exp(double noundef %call8.i.i.i.i) #19, !tbaa !24
  call void @llvm.lifetime.end.p0(i64 1, ptr nonnull %ref.tmp.i.i.i.i) #19
  %3 = load double, ptr %jumpIntensity_.i.i.i.i, align 8, !tbaa !16
  %mul11.i.i.i.i = fmul double %call9.i.i.i.i, %3
  %div12.i.i.i.i = fdiv double %mul11.i.i.i.i, %sub3.i.i.i.i
  %4 = load double, ptr %beta_.i.i.i.i, align 8, !tbaa !6
  %mul14.i.i.i.i = fmul double %call.val1.val, %4
  %call15.i.i.i.i = call double @exp(double noundef %mul14.i.i.i.i) #19, !tbaa !24
  %mul16.i.i.i.i = fmul double %__args.val, %call15.i.i.i.i
  %eta_.i.i.i.i = getelementptr inbounds nuw i8, ptr %call.val, i64 96
  %5 = load double, ptr %eta_.i.i.i.i, align 8, !tbaa !17
  %mul17.i.i.i.i = fmul double %mul16.i.i.i.i, %5
  %call18.i.i.i.i = call noundef double @_ZN8QuantLib23incompleteGammaFunctionEdddi(double noundef %sub.i.i.i.i, double noundef %mul17.i.i.i.i, double noundef 1.000000e-13, i32 noundef 100)
  %6 = load double, ptr %eta_.i.i.i.i, align 8, !tbaa !17
  %mul20.i.i.i.i = fmul double %__args.val, %6
  %call21.i.i.i.i = call noundef double @_ZN8QuantLib23incompleteGammaFunctionEdddi(double noundef %sub.i.i.i.i, double noundef %mul20.i.i.i.i, double noundef 1.000000e-13, i32 noundef 100)
  %sub22.i.i.i.i = fsub double %call18.i.i.i.i, %call21.i.i.i.i
  %mul23.i.i.i.i = fmul double %div12.i.i.i.i, %sub22.i.i.i.i
  %7 = load double, ptr %eta_.i.i.i.i, align 8, !tbaa !17
  %8 = load double, ptr %jumpIntensity_.i.i.i.i, align 8, !tbaa !16
  %9 = load double, ptr %beta_.i.i.i.i, align 8, !tbaa !6
  %div27.i.i.i.i = fdiv double %8, %9
  %call28.i.i.i.i = call double @pow(double noundef %7, double noundef %div27.i.i.i.i) #19, !tbaa !24
  %mul29.i.i.i.i = fmul double %mul23.i.i.i.i, %call28.i.i.i.i
  %call31.i.i.i.i = call double @pow(double noundef %__args.val, double noundef %sub.i.i.i.i) #19, !tbaa !24
  %mul32.i.i.i.i = fmul double %9, %call31.i.i.i.i
  %div33.i.i.i.i = fdiv double %mul29.i.i.i.i, %mul32.i.i.i.i
  ret double %div33.i.i.i.i
}